target datalayout = "e-m:e-p270:32:32-p271:32:32-p272:64:64-i64:64-i128:128-f80:128-n8:16:32:64-S128"
target triple = "x86_64-pc-linux-gnu"

%struct.ps_serializer_struct = type { ptr, ptr, ptr }

; Function Attrs: nounwind uwtable
define i32 @php_session_register_serializer(ptr noundef %0, ptr noundef %1, ptr noundef %2) #0 {
  %4 = alloca ptr, align 8
  %5 = alloca ptr, align 8
  %6 = alloca ptr, align 8
  %7 = alloca i32, align 4
  %8 = alloca i32, align 4
  store ptr %0, ptr %4, align 8
  store ptr %1, ptr %5, align 8
  store ptr %2, ptr %6, align 8
  store i32 -1, ptr %7, align 4
  store i32 0, ptr %8, align 4
  br label %9

9:                                                ; preds = %41, %3
  %10 = load i32, ptr %8, align 4
  %11 = icmp slt i32 %10, 32
  br i1 %11, label %12, label %44

12:                                               ; preds = %9
  %13 = load i32, ptr %8, align 4
  %14 = sext i32 %13 to i64
  %15 = getelementptr inbounds [33 x %struct.ps_serializer_struct], ptr @ps_serializers, i64 0, i64 %14
  %16 = getelementptr inbounds %struct.ps_serializer_struct, ptr %15, i32 0, i32 0
  %17 = load ptr, ptr %16, align 8
  %18 = icmp eq ptr %17, null
  br i1 %18, label %19, label %40

19:                                               ; preds = %12
  %20 = load ptr, ptr %4, align 8
  %21 = load i32, ptr %8, align 4
  %22 = sext i32 %21 to i64
  %23 = getelementptr inbounds [33 x %struct.ps_serializer_struct], ptr @ps_serializers, i64 0, i64 %22
  %24 = getelementptr inbounds %struct.ps_serializer_struct, ptr %23, i32 0, i32 0
  store ptr %20, ptr %24, align 8
  %25 = load ptr, ptr %5, align 8
  %26 = load i32, ptr %8, align 4
  %27 = sext i32 %26 to i64
  %28 = getelementptr inbounds [33 x %struct.ps_serializer_struct], ptr @ps_serializers, i64 0, i64 %27
  %29 = getelementptr inbounds %struct.ps_serializer_struct, ptr %28, i32 0, i32 1
  store ptr %25, ptr %29, align 8
  %30 = load ptr, ptr %6, align 8
  %31 = load i32, ptr %8, align 4
  %32 = sext i32 %31 to i64
  %33 = getelementptr inbounds [33 x %struct.ps_serializer_struct], ptr @ps_serializers, i64 0, i64 %32
  %34 = getelementptr inbounds %struct.ps_serializer_struct, ptr %33, i32 0, i32 2
  store ptr %30, ptr %34, align 8
  %35 = load i32, ptr %8, align 4
  %36 = add nsw i32 %35, 1
  %37 = sext i32 %36 to i64
  %38 = getelementptr inbounds [33 x %struct.ps_serializer_struct], ptr @ps_serializers, i64 0, i64 %37
  %39 = getelementptr inbounds %struct.ps_serializer_struct, ptr %38, i32 0, i32 0
  store ptr null, ptr %39, align 8
  store i32 0, ptr %7, align 4
  br label %44

40:                                               ; preds = %12
  br label %41

41:                                               ; preds = %40
  %42 = load i32, ptr %8, align 4
  %43 = add nsw i32 %42, 1
  store i32 %43, ptr %8, align 4
  br label %9

44:                                               ; preds = %19, %9
  %45 = load i32, ptr %7, align 4
  ret i32 %45
}