; Function Attrs: nofree norecurse nosync nounwind memory(readwrite, argmem: none, inaccessiblemem: none) uwtable
define noundef i32 @php_session_register_serializer(ptr noundef %0, ptr noundef %1, ptr noundef %2) local_unnamed_addr #5 {
  br label %4

4:                                                ; preds = %3, %14
  %indvars.iv = phi i64 [ 0, %3 ], [ %indvars.iv.next, %14 ]
  %5 = getelementptr inbounds [33 x %struct.ps_serializer_struct], ptr @ps_serializers, i64 0, i64 %indvars.iv
  %6 = load ptr, ptr %5, align 8
  %7 = icmp eq ptr %6, null
  br i1 %7, label %8, label %14

8:                                                ; preds = %4
  store ptr %0, ptr %5, align 8
  %9 = getelementptr inbounds i8, ptr %5, i64 8
  store ptr %1, ptr %9, align 8
  %10 = getelementptr inbounds i8, ptr %5, i64 16
  store ptr %2, ptr %10, align 8
  %11 = add nuw i64 %indvars.iv, 1
  %12 = and i64 %11, 4294967295
  %13 = getelementptr inbounds [33 x %struct.ps_serializer_struct], ptr @ps_serializers, i64 0, i64 %12
  store ptr null, ptr %13, align 8
  br label %.loopexit

14:                                               ; preds = %4
  %indvars.iv.next = add nuw nsw i64 %indvars.iv, 1
  %exitcond.not = icmp eq i64 %indvars.iv.next, 32
  br i1 %exitcond.not, label %.loopexit, label %4

.loopexit:                                        ; preds = %14, %8
  %.010 = phi i32 [ 0, %8 ], [ -1, %14 ]
  ret i32 %.010
}